target datalayout = "e-m:e-p270:32:32-p271:32:32-p272:64:64-i64:64-i128:128-f80:128-n8:16:32:64-S128"
target triple = "x86_64-pc-linux-gnu"

%struct.printTextLineFormat = type { ptr, ptr, ptr, ptr }
%struct.printTextFormat = type { ptr, [4 x %struct.printTextLineFormat], ptr, ptr, ptr, ptr, ptr, ptr, ptr, ptr, ptr, i8 }
%struct.unicodeStyleRowFormat = type { ptr, [2 x ptr], [2 x ptr] }
%struct.unicodeStyleColumnFormat = type { ptr, [2 x ptr], [2 x ptr], [2 x ptr] }
%struct.unicodeStyleBorderFormat = type { ptr, ptr, ptr, ptr, ptr, ptr }
%struct.printTableOpt = type { i32, i16, i32, i32, i16, i16, i32, i8, i8, i8, i8, i64, ptr, %struct.separator, %struct.separator, [2 x i8], i8, ptr, i32, i32, i32, i32, i32, i32 }
%struct.separator = type { ptr, i8 }
%struct.unicodeStyleFormat = type { [2 x %struct.unicodeStyleRowFormat], [2 x %struct.unicodeStyleColumnFormat], [2 x %struct.unicodeStyleBorderFormat], ptr, ptr, ptr, ptr, ptr, ptr, i8 }

@.str.3 = private unnamed_addr constant [1 x i8] zeroinitializer, align 1
@pg_utf8format = dso_local global %struct.printTextFormat zeroinitializer, align 8
@.str.27 = private unnamed_addr constant [8 x i8] c"unicode\00", align 1

; Function Attrs: nounwind uwtable
define dso_local void @refresh_utf8format(ptr noundef %0) #0 {
  %2 = alloca ptr, align 8
  %3 = alloca ptr, align 8
  %4 = alloca ptr, align 8
  %5 = alloca ptr, align 8
  %6 = alloca ptr, align 8
  store ptr %0, ptr %2, align 8
  call void @llvm.lifetime.start.p0(i64 8, ptr %3) #8
  store ptr @pg_utf8format, ptr %3, align 8
  call void @llvm.lifetime.start.p0(i64 8, ptr %4) #8
  call void @llvm.lifetime.start.p0(i64 8, ptr %5) #8
  call void @llvm.lifetime.start.p0(i64 8, ptr %6) #8
  %7 = load ptr, ptr %3, align 8
  %8 = getelementptr inbounds nuw %struct.printTextFormat, ptr %7, i32 0, i32 0
  store ptr @.str.27, ptr %8, align 8
  %9 = load ptr, ptr %2, align 8
  %10 = getelementptr inbounds nuw %struct.printTableOpt, ptr %9, i32 0, i32 21
  %11 = load i32, ptr %10, align 4
  %12 = zext i32 %11 to i64
  %13 = getelementptr inbounds nuw [2 x %struct.unicodeStyleBorderFormat], ptr getelementptr inbounds nuw (%struct.unicodeStyleFormat, ptr @unicode_style, i32 0, i32 2), i64 0, i64 %12
  store ptr %13, ptr %4, align 8
  %14 = load ptr, ptr %2, align 8
  %15 = getelementptr inbounds nuw %struct.printTableOpt, ptr %14, i32 0, i32 23
  %16 = load i32, ptr %15, align 4
  %17 = zext i32 %16 to i64
  %18 = getelementptr inbounds nuw [2 x %struct.unicodeStyleRowFormat], ptr @unicode_style, i64 0, i64 %17
  store ptr %18, ptr %5, align 8
  %19 = load ptr, ptr %2, align 8
  %20 = getelementptr inbounds nuw %struct.printTableOpt, ptr %19, i32 0, i32 22
  %21 = load i32, ptr %20, align 8
  %22 = zext i32 %21 to i64
  %23 = getelementptr inbounds nuw [2 x %struct.unicodeStyleColumnFormat], ptr getelementptr inbounds nuw (%struct.unicodeStyleFormat, ptr @unicode_style, i32 0, i32 1), i64 0, i64 %22
  store ptr %23, ptr %6, align 8
  %24 = load ptr, ptr %4, align 8
  %25 = getelementptr inbounds nuw %struct.unicodeStyleBorderFormat, ptr %24, i32 0, i32 3
  %26 = load ptr, ptr %25, align 8
  %27 = load ptr, ptr %3, align 8
  %28 = getelementptr inbounds nuw %struct.printTextFormat, ptr %27, i32 0, i32 1
  %29 = getelementptr inbounds [4 x %struct.printTextLineFormat], ptr %28, i64 0, i64 0
  %30 = getelementptr inbounds nuw %struct.printTextLineFormat, ptr %29, i32 0, i32 0
  store ptr %26, ptr %30, align 8
  %31 = load ptr, ptr %4, align 8
  %32 = getelementptr inbounds nuw %struct.unicodeStyleBorderFormat, ptr %31, i32 0, i32 2
  %33 = load ptr, ptr %32, align 8
  %34 = load ptr, ptr %3, align 8
  %35 = getelementptr inbounds nuw %struct.printTextFormat, ptr %34, i32 0, i32 1
  %36 = getelementptr inbounds [4 x %struct.printTextLineFormat], ptr %35, i64 0, i64 0
  %37 = getelementptr inbounds nuw %struct.printTextLineFormat, ptr %36, i32 0, i32 1
  store ptr %33, ptr %37, align 8
  %38 = load ptr, ptr %6, align 8
  %39 = getelementptr inbounds nuw %struct.unicodeStyleColumnFormat, ptr %38, i32 0, i32 3
  %40 = load ptr, ptr %2, align 8
  %41 = getelementptr inbounds nuw %struct.printTableOpt, ptr %40, i32 0, i32 21
  %42 = load i32, ptr %41, align 4
  %43 = zext i32 %42 to i64
  %44 = getelementptr inbounds nuw [2 x ptr], ptr %39, i64 0, i64 %43
  %45 = load ptr, ptr %44, align 8
  %46 = load ptr, ptr %3, align 8
  %47 = getelementptr inbounds nuw %struct.printTextFormat, ptr %46, i32 0, i32 1
  %48 = getelementptr inbounds [4 x %struct.printTextLineFormat], ptr %47, i64 0, i64 0
  %49 = getelementptr inbounds nuw %struct.printTextLineFormat, ptr %48, i32 0, i32 2
  store ptr %45, ptr %49, align 8
  %50 = load ptr, ptr %4, align 8
  %51 = getelementptr inbounds nuw %struct.unicodeStyleBorderFormat, ptr %50, i32 0, i32 4
  %52 = load ptr, ptr %51, align 8
  %53 = load ptr, ptr %3, align 8
  %54 = getelementptr inbounds nuw %struct.printTextFormat, ptr %53, i32 0, i32 1
  %55 = getelementptr inbounds [4 x %struct.printTextLineFormat], ptr %54, i64 0, i64 0
  %56 = getelementptr inbounds nuw %struct.printTextLineFormat, ptr %55, i32 0, i32 3
  store ptr %52, ptr %56, align 8
  %57 = load ptr, ptr %5, align 8
  %58 = getelementptr inbounds nuw %struct.unicodeStyleRowFormat, ptr %57, i32 0, i32 0
  %59 = load ptr, ptr %58, align 8
  %60 = load ptr, ptr %3, align 8
  %61 = getelementptr inbounds nuw %struct.printTextFormat, ptr %60, i32 0, i32 1
  %62 = getelementptr inbounds [4 x %struct.printTextLineFormat], ptr %61, i64 0, i64 1
  %63 = getelementptr inbounds nuw %struct.printTextLineFormat, ptr %62, i32 0, i32 0
  store ptr %59, ptr %63, align 8
  %64 = load ptr, ptr %5, align 8
  %65 = getelementptr inbounds nuw %struct.unicodeStyleRowFormat, ptr %64, i32 0, i32 1
  %66 = load ptr, ptr %2, align 8
  %67 = getelementptr inbounds nuw %struct.printTableOpt, ptr %66, i32 0, i32 21
  %68 = load i32, ptr %67, align 4
  %69 = zext i32 %68 to i64
  %70 = getelementptr inbounds nuw [2 x ptr], ptr %65, i64 0, i64 %69
  %71 = load ptr, ptr %70, align 8
  %72 = load ptr, ptr %3, align 8
  %73 = getelementptr inbounds nuw %struct.printTextFormat, ptr %72, i32 0, i32 1
  %74 = getelementptr inbounds [4 x %struct.printTextLineFormat], ptr %73, i64 0, i64 1
  %75 = getelementptr inbounds nuw %struct.printTextLineFormat, ptr %74, i32 0, i32 1
  store ptr %71, ptr %75, align 8
  %76 = load ptr, ptr %6, align 8
  %77 = getelementptr inbounds nuw %struct.unicodeStyleColumnFormat, ptr %76, i32 0, i32 1
  %78 = load ptr, ptr %2, align 8
  %79 = getelementptr inbounds nuw %struct.printTableOpt, ptr %78, i32 0, i32 23
  %80 = load i32, ptr %79, align 4
  %81 = zext i32 %80 to i64
  %82 = getelementptr inbounds nuw [2 x ptr], ptr %77, i64 0, i64 %81
  %83 = load ptr, ptr %82, align 8
  %84 = load ptr, ptr %3, align 8
  %85 = getelementptr inbounds nuw %struct.printTextFormat, ptr %84, i32 0, i32 1
  %86 = getelementptr inbounds [4 x %struct.printTextLineFormat], ptr %85, i64 0, i64 1
  %87 = getelementptr inbounds nuw %struct.printTextLineFormat, ptr %86, i32 0, i32 2
  store ptr %83, ptr %87, align 8
  %88 = load ptr, ptr %5, align 8
  %89 = getelementptr inbounds nuw %struct.unicodeStyleRowFormat, ptr %88, i32 0, i32 2
  %90 = load ptr, ptr %2, align 8
  %91 = getelementptr inbounds nuw %struct.printTableOpt, ptr %90, i32 0, i32 21
  %92 = load i32, ptr %91, align 4
  %93 = zext i32 %92 to i64
  %94 = getelementptr inbounds nuw [2 x ptr], ptr %89, i64 0, i64 %93
  %95 = load ptr, ptr %94, align 8
  %96 = load ptr, ptr %3, align 8
  %97 = getelementptr inbounds nuw %struct.printTextFormat, ptr %96, i32 0, i32 1
  %98 = getelementptr inbounds [4 x %struct.printTextLineFormat], ptr %97, i64 0, i64 1
  %99 = getelementptr inbounds nuw %struct.printTextLineFormat, ptr %98, i32 0, i32 3
  store ptr %95, ptr %99, align 8
  %100 = load ptr, ptr %4, align 8
  %101 = getelementptr inbounds nuw %struct.unicodeStyleBorderFormat, ptr %100, i32 0, i32 3
  %102 = load ptr, ptr %101, align 8
  %103 = load ptr, ptr %3, align 8
  %104 = getelementptr inbounds nuw %struct.printTextFormat, ptr %103, i32 0, i32 1
  %105 = getelementptr inbounds [4 x %struct.printTextLineFormat], ptr %104, i64 0, i64 2
  %106 = getelementptr inbounds nuw %struct.printTextLineFormat, ptr %105, i32 0, i32 0
  store ptr %102, ptr %106, align 8
  %107 = load ptr, ptr %4, align 8
  %108 = getelementptr inbounds nuw %struct.unicodeStyleBorderFormat, ptr %107, i32 0, i32 0
  %109 = load ptr, ptr %108, align 8
  %110 = load ptr, ptr %3, align 8
  %111 = getelementptr inbounds nuw %struct.printTextFormat, ptr %110, i32 0, i32 1
  %112 = getelementptr inbounds [4 x %struct.printTextLineFormat], ptr %111, i64 0, i64 2
  %113 = getelementptr inbounds nuw %struct.printTextLineFormat, ptr %112, i32 0, i32 1
  store ptr %109, ptr %113, align 8
  %114 = load ptr, ptr %6, align 8
  %115 = getelementptr inbounds nuw %struct.unicodeStyleColumnFormat, ptr %114, i32 0, i32 2
  %116 = load ptr, ptr %2, align 8
  %117 = getelementptr inbounds nuw %struct.printTableOpt, ptr %116, i32 0, i32 21
  %118 = load i32, ptr %117, align 4
  %119 = zext i32 %118 to i64
  %120 = getelementptr inbounds nuw [2 x ptr], ptr %115, i64 0, i64 %119
  %121 = load ptr, ptr %120, align 8
  %122 = load ptr, ptr %3, align 8
  %123 = getelementptr inbounds nuw %struct.printTextFormat, ptr %122, i32 0, i32 1
  %124 = getelementptr inbounds [4 x %struct.printTextLineFormat], ptr %123, i64 0, i64 2
  %125 = getelementptr inbounds nuw %struct.printTextLineFormat, ptr %124, i32 0, i32 2
  store ptr %121, ptr %125, align 8
  %126 = load ptr, ptr %4, align 8
  %127 = getelementptr inbounds nuw %struct.unicodeStyleBorderFormat, ptr %126, i32 0, i32 5
  %128 = load ptr, ptr %127, align 8
  %129 = load ptr, ptr %3, align 8
  %130 = getelementptr inbounds nuw %struct.printTextFormat, ptr %129, i32 0, i32 1
  %131 = getelementptr inbounds [4 x %struct.printTextLineFormat], ptr %130, i64 0, i64 2
  %132 = getelementptr inbounds nuw %struct.printTextLineFormat, ptr %131, i32 0, i32 3
  store ptr %128, ptr %132, align 8
  %133 = load ptr, ptr %3, align 8
  %134 = getelementptr inbounds nuw %struct.printTextFormat, ptr %133, i32 0, i32 1
  %135 = getelementptr inbounds [4 x %struct.printTextLineFormat], ptr %134, i64 0, i64 3
  %136 = getelementptr inbounds nuw %struct.printTextLineFormat, ptr %135, i32 0, i32 0
  store ptr @.str.3, ptr %136, align 8
  %137 = load ptr, ptr %4, align 8
  %138 = getelementptr inbounds nuw %struct.unicodeStyleBorderFormat, ptr %137, i32 0, i32 1
  %139 = load ptr, ptr %138, align 8
  %140 = load ptr, ptr %3, align 8
  %141 = getelementptr inbounds nuw %struct.printTextFormat, ptr %140, i32 0, i32 1
  %142 = getelementptr inbounds [4 x %struct.printTextLineFormat], ptr %141, i64 0, i64 3
  %143 = getelementptr inbounds nuw %struct.printTextLineFormat, ptr %142, i32 0, i32 1
  store ptr %139, ptr %143, align 8
  %144 = load ptr, ptr %6, align 8
  %145 = getelementptr inbounds nuw %struct.unicodeStyleColumnFormat, ptr %144, i32 0, i32 0
  %146 = load ptr, ptr %145, align 8
  %147 = load ptr, ptr %3, align 8
  %148 = getelementptr inbounds nuw %struct.printTextFormat, ptr %147, i32 0, i32 1
  %149 = getelementptr inbounds [4 x %struct.printTextLineFormat], ptr %148, i64 0, i64 3
  %150 = getelementptr inbounds nuw %struct.printTextLineFormat, ptr %149, i32 0, i32 2
  store ptr %146, ptr %150, align 8
  %151 = load ptr, ptr %4, align 8
  %152 = getelementptr inbounds nuw %struct.unicodeStyleBorderFormat, ptr %151, i32 0, i32 1
  %153 = load ptr, ptr %152, align 8
  %154 = load ptr, ptr %3, align 8
  %155 = getelementptr inbounds nuw %struct.printTextFormat, ptr %154, i32 0, i32 1
  %156 = getelementptr inbounds [4 x %struct.printTextLineFormat], ptr %155, i64 0, i64 3
  %157 = getelementptr inbounds nuw %struct.printTextLineFormat, ptr %156, i32 0, i32 3
  store ptr %153, ptr %157, align 8
  %158 = load ptr, ptr %6, align 8
  %159 = getelementptr inbounds nuw %struct.unicodeStyleColumnFormat, ptr %158, i32 0, i32 0
  %160 = load ptr, ptr %159, align 8
  %161 = load ptr, ptr %3, align 8
  %162 = getelementptr inbounds nuw %struct.printTextFormat, ptr %161, i32 0, i32 2
  store ptr %160, ptr %162, align 8
  %163 = load ptr, ptr %6, align 8
  %164 = getelementptr inbounds nuw %struct.unicodeStyleColumnFormat, ptr %163, i32 0, i32 0
  %165 = load ptr, ptr %164, align 8
  %166 = load ptr, ptr %3, align 8
  %167 = getelementptr inbounds nuw %struct.printTextFormat, ptr %166, i32 0, i32 3
  store ptr %165, ptr %167, align 8
  %168 = load ptr, ptr %6, align 8
  %169 = getelementptr inbounds nuw %struct.unicodeStyleColumnFormat, ptr %168, i32 0, i32 0
  %170 = load ptr, ptr %169, align 8
  %171 = load ptr, ptr %3, align 8
  %172 = getelementptr inbounds nuw %struct.printTextFormat, ptr %171, i32 0, i32 4
  store ptr %170, ptr %172, align 8
  %173 = load ptr, ptr getelementptr inbounds nuw (%struct.unicodeStyleFormat, ptr @unicode_style, i32 0, i32 3), align 8
  %174 = load ptr, ptr %3, align 8
  %175 = getelementptr inbounds nuw %struct.printTextFormat, ptr %174, i32 0, i32 5
  store ptr %173, ptr %175, align 8
  %176 = load ptr, ptr getelementptr inbounds nuw (%struct.unicodeStyleFormat, ptr @unicode_style, i32 0, i32 4), align 8
  %177 = load ptr, ptr %3, align 8
  %178 = getelementptr inbounds nuw %struct.printTextFormat, ptr %177, i32 0, i32 6
  store ptr %176, ptr %178, align 8
  %179 = load ptr, ptr getelementptr inbounds nuw (%struct.unicodeStyleFormat, ptr @unicode_style, i32 0, i32 5), align 8
  %180 = load ptr, ptr %3, align 8
  %181 = getelementptr inbounds nuw %struct.printTextFormat, ptr %180, i32 0, i32 7
  store ptr %179, ptr %181, align 8
  %182 = load ptr, ptr getelementptr inbounds nuw (%struct.unicodeStyleFormat, ptr @unicode_style, i32 0, i32 6), align 8
  %183 = load ptr, ptr %3, align 8
  %184 = getelementptr inbounds nuw %struct.printTextFormat, ptr %183, i32 0, i32 8
  store ptr %182, ptr %184, align 8
  %185 = load ptr, ptr getelementptr inbounds nuw (%struct.unicodeStyleFormat, ptr @unicode_style, i32 0, i32 7), align 8
  %186 = load ptr, ptr %3, align 8
  %187 = getelementptr inbounds nuw %struct.printTextFormat, ptr %186, i32 0, i32 9
  store ptr %185, ptr %187, align 8
  %188 = load ptr, ptr getelementptr inbounds nuw (%struct.unicodeStyleFormat, ptr @unicode_style, i32 0, i32 8), align 8
  %189 = load ptr, ptr %3, align 8
  %190 = getelementptr inbounds nuw %struct.printTextFormat, ptr %189, i32 0, i32 10
  store ptr %188, ptr %190, align 8
  %191 = load ptr, ptr %3, align 8
  %192 = getelementptr inbounds nuw %struct.printTextFormat, ptr %191, i32 0, i32 11
  store i8 1, ptr %192, align 8
  call void @llvm.lifetime.end.p0(i64 8, ptr %6) #8
  call void @llvm.lifetime.end.p0(i64 8, ptr %5) #8
  call void @llvm.lifetime.end.p0(i64 8, ptr %4) #8
  call void @llvm.lifetime.end.p0(i64 8, ptr %3) #8
  ret void
}